(lp0
(lp1
((lp2
F7.11262428771561
aF-0.28275679939153864
aF1.0376562137796423
a(lp3
F0.6082957028690749
aF-0.008094226137380584
aF-0.7935473447235051
aF0.01390802130172494
atp4
a((lp5
F7.072083698522032
aF-0.11978517871451219
aF0.8410112263970452
a(lp6
F0.7363148539321883
aF-0.06405377711483619
aF-0.6734501731756672
aF0.01422721918741434
atp7
a((lp8
F7.1666906201521225
aF-0.3827541186623563
aF0.8883633820926171
a(lp9
F0.6822168524727792
aF-0.022607158644249323
aF-0.7302944671876594
aF0.02718591133768426
atp10
a((lp11
F7.013159869995535
aF-0.7620842589492725
aF0.8940857419458761
a(lp12
F0.592531392167389
aF-0.11080390567452501
aF-0.7943082976205689
aF-0.07552067342496356
atp13
a((lp14
F7.085208920013396
aF-1.079123043809699
aF0.8979501578103731
a(lp15
F0.5694989733426961
aF-0.2185066771093387
aF-0.7679328504619447
aF-0.19546070858779416
atp16
a((lp17
F7.027794178030391
aF-1.1818879362941517
aF0.9862497957047156
a(lp18
F0.5600217933036707
aF-0.24825568280674978
aF-0.7536542100723342
aF-0.23822266604867998
atp19
a((lp20
F6.940721157158165
aF-0.7070032260606989
aF0.9615987393236226
a(lp21
F0.7677529459449752
aF-0.02812751444300131
aF-0.6355108902990705
aF0.07674741191306127
atp22
a((lp23
F7.696816739098389
aF-1.3647003876757802
aF1.2562211611143086
a(lp24
F0.5771784623333609
aF-0.4602440155186545
aF-0.6210276008113156
aF-0.26337271656020594
atp25
a((lp26
F7.694195583237123
aF-0.5315211302392568
aF1.3065670523837334
a(lp27
F0.7231447772630777
aF-0.1259617902206676
aF-0.6787374858334975
aF0.022598315113321332
atp28
a((lp29
F7.578738827752749
aF-0.05652817717750366
aF1.1933343588013858
a(lp30
F0.7236744045689186
aF0.09557196845116088
aF-0.6620899518501091
aF0.16970047341510583
atp31
a((lp32
F7.217079026077116
aF-0.10953279790769871
aF0.4194115928866933
a(lp33
F0.7571309276242323
aF0.06716162049348819
aF-0.6425274408434422
aF0.09695650019846304
atp34
a((lp35
F8.61000363069623
aF-1.1034179274018516
aF1.0659286865867488
a(lp36
F0.6916305591502021
aF-0.029381971353131538
aF-0.7211203209415792
aF0.027737197661182822
atp37
a((lp38
F8.332076436385936
aF-0.9808706725120779
aF1.2724762611059746
a(lp39
F0.5825214440716211
aF-0.2044153578146194
aF-0.7748100544221622
aF-0.13620759249234377
atp40
a((lp41
F9.80997068786702
aF-1.3625524856245816
aF1.2416765965700058
a(lp42
F0.6156217002895719
aF-0.25646124230564205
aF-0.7400379434747567
aF-0.08707120962336275
atp43
a((lp44
F10.201685608644315
aF-1.3776968403618155
aF1.2333288733560042
a(lp45
F0.6570711735063814
aF-0.1944759447065495
aF-0.7256657055871135
aF-0.0620150273095024
atp46
a((lp47
F7.37156961082027
aF-0.6056687874151487
aF1.1940908637693088
a(lp48
F0.6067687368999327
aF-0.10340321296758821
aF-0.7878432994453357
aF-0.021033568121624272
atp49
a((lp50
F7.094945832407044
aF-0.6701912534063221
aF0.9317459623558159
a(lp51
F0.4929304693414107
aF-0.16151201085790967
aF-0.8520963786807366
aF-0.06975087227171768
atp52
a((lp53
F6.897009083890558
aF-0.30608229123147096
aF0.9561589546553428
a(lp54
F0.44294257328545206
aF-0.1136367242839509
aF-0.8863224031039701
aF0.07294634618182319
atp55
aa(lp56
((lp57
F0.3095466408943151
aF0.37650584971230283
aF1.1580086311722988
a(lp58
F-0.6743325745018875
aF0.7169756830661793
aF0.14191471595230729
aF0.10526947446253303
atp59
a((lp60
F0.45850093765920147
aF0.18712453022644812
aF1.1163157954557312
a(lp61
F-0.6521446185103376
aF0.7429908005768755
aF0.13382803833548162
aF0.06900813692179064
atp62
a((lp63
F0.1481215176061839
aF0.2421277488146943
aF1.1070186988009998
a(lp64
F-0.6578855792846331
aF0.741023095037794
aF0.07817169607392904
aF0.1093641765975336
atp65
a((lp66
F-0.16796899017192723
aF0.25485346799506003
aF1.1068454126247103
a(lp67
F-0.6593470655781005
aF0.7248422817843818
aF0.026569386208776694
aF0.19788678927014786
atp68
a((lp69
F-0.46809950373768416
aF0.26189771429935593
aF1.1808117929700024
a(lp70
F-0.6355622049097619
aF0.7042691590394256
aF-0.06954603199008266
aF0.3085919388943541
atp71
a((lp72
F-0.5415916995280347
aF0.3423057530452487
aF1.2181254666525907
a(lp73
F-0.6311226496435173
aF0.6973931421873866
aF-0.0994673487785064
aF0.3247048704037637
atp74
a((lp75
F-0.11358820594435297
aF0.33314223725833636
aF1.0238902689207054
a(lp76
F-0.6204707065657823
aF0.7529034335256238
aF0.056507313128661765
aF0.21203642527185013
atp77
a((lp78
F-0.6940043879025581
aF0.566116268704063
aF1.7588021540668985
a(lp79
F-0.4763041426014598
aF0.7332851364583406
aF-0.3103547400362933
aF0.3729707866937649
atp80
a((lp81
F0.11544634036450627
aF0.5922244349815572
aF1.7152401098091414
a(lp82
F-0.6183027959382402
aF0.7855693151976443
aF0.02227326696015614
aF0.009295436180221595
atp83
a((lp84
F0.5648281444361984
aF0.4905275875799683
aF1.5321909597221355
a(lp85
F-0.6633338508137984
aF0.725923205250048
aF0.12506920335751634
aF-0.13183852553616662
atp86
a((lp87
F0.46747441092467484
aF-0.24454005719039543
aF1.2336719996845695
a(lp88
F-0.6803793009072643
aF0.7247451362413591
aF0.048568250030015345
aF-0.09731196987245835
atp89
a((lp90
F-0.37192944913579007
aF0.2949242891116256
aF2.4896080198617323
a(lp91
F-0.6508460437168158
aF0.7375390718293571
aF-0.05203626574298299
aF0.17241743517053268
atp92
a((lp93
F-0.2725194730463461
aF0.5099001705658102
aF2.271606156900938
a(lp94
F-0.6270008400994502
aF0.7251648334468044
aF-0.035121216319166565
aF0.282440101633806
atp95
a((lp96
F-0.5472937366162087
aF0.339129666014152
aF3.787655226650561
a(lp97
F-0.5758989518560323
aF0.7807737982993339
aF-0.05614944390745485
aF0.23575392486497015
atp98
a((lp99
F-0.5343454925893213
aF0.3061657219159266
aF4.099659186520345
a(lp100
F-0.6066427658773921
aF0.7688992765579015
aF-0.05980057278729644
aF0.19287910361590394
atp101
a((lp102
F0.020268894560926468
aF0.5108276616006941
aF1.4828655019006918
a(lp103
F-0.6376084827815538
aF0.7596253458261508
aF0.04085817564680724
aF0.12147166808075216
atp104
a((lp105
F-0.06711191986305837
aF0.30342156189313885
aF1.0735754030080698
a(lp106
F-0.6011368359737796
aF0.731534584393177
aF0.0976483436861002
aF0.3065231757102491
atp107
a((lp108
F0.2750569305057601
aF0.3269333632250297
aF0.9301947685460626
a(lp109
F-0.5457399406647447
aF0.7648053170376318
aF0.24588257173175027
aF0.23829079947154738
atp110
aa.