(lp0
(lp1
((lp2
F7.456989221198676
aF-0.4458118854512588
aF1.1231533712205748
a(lp3
F-0.015753533691161017
aF-0.8001036116767444
aF-0.0863683731471819
aF0.5934025116882969
atp4
a((lp5
F7.263745448658588
aF-1.17988956737469
aF1.1887721650796563
a(lp6
F0.3596400471685072
aF-0.5556852399670057
aF-0.3560908106648583
aF0.6596000948419343
atp7
a((lp8
F7.349171177067527
aF-0.7514139146972773
aF1.0218886476862734
a(lp9
F0.422803586843239
aF-0.6419295663793674
aF-0.49141179861691825
aF0.40948504605244607
atp10
a((lp11
F6.8510752398304575
aF-0.9567924582025182
aF1.0418340616977262
a(lp12
F0.33518251136341204
aF-0.6788933483393155
aF-0.5529834099943073
aF0.34780145762750414
atp13
a((lp14
F7.4488852165509645
aF-0.2522385923210078
aF0.9423120676961562
a(lp15
F0.6616024782869517
aF-0.40531794348477485
aF-0.3071243713106448
aF0.5510663716476238
atp16
a((lp17
F7.546353984857152
aF-0.2144604782291361
aF0.5016580313081748
a(lp18
F0.47959121342712335
aF-0.2970858750907169
aF-0.8115597967826628
aF0.1519965363788439
atp19
a((lp20
F7.194173889463708
aF-0.05289163244391026
aF0.6339833445453942
a(lp21
F0.4988019145580281
aF-0.3033716367836303
aF-0.7693431875035982
aF0.25937108526254293
atp22
a((lp23
F7.454271843226157
aF-0.164418635933542
aF1.3119665395456295
a(lp24
F0.5897782501340423
aF-0.45499196449215196
aF-0.3732189501166737
aF0.5530384644762124
atp25
a((lp26
F7.449463344433063
aF-0.16431407335971615
aF1.3125236011878878
a(lp27
F0.5907896762822458
aF-0.4541425100068472
aF-0.3696137022457083
aF0.5550746347251153
atp28
a((lp29
F7.617201358311428
aF-0.5817123663106167
aF1.326776591512463
a(lp30
F0.4039090207705161
aF-0.6217445828064131
aF-0.5107327861700409
aF0.43525072983519414
atp31
a((lp32
F7.832997684341215
aF-1.1069406556064507
aF0.8548518012682754
a(lp33
F0.5008987515306177
aF-0.4728552556469376
aF-0.6671132242523603
aF0.28366933910762654
atp34
aa(lp35
((lp36
F0.18626318441184253
aF0.4496961408279959
aF1.3216086329712011
a(lp37
F0.6634781934724107
aF0.7437070137469142
aF-0.0645391599166274
aF0.05031164206711764
atp38
a((lp39
F-0.5567822383855766
aF0.5250038529364806
aF1.3573081164583387
a(lp40
F0.26737533835102845
aF0.960429445083453
aF0.0606782916641825
aF0.049029117665732466
atp41
a((lp42
F-0.12209058008487181
aF0.3750872385562823
aF1.1639271977268226
a(lp43
F0.08181051485640181
aF0.9863533329927444
aF-0.08552901827101295
aF0.11445055345707832
atp44
a((lp45
F-0.37949633958829554
aF0.3815263845343195
aF1.1181455224459138
a(lp46
F0.08011197755449911
aF0.9882704186694942
aF-0.018093827184349546
aF0.1287488409771253
atp47
a((lp48
F0.3618842588513127
aF0.26951205320879873
aF1.2795035353953763
a(lp49
F-0.003534776842313307
aF0.9672285574823106
aF-0.014949098814760092
aF-0.2534421973310481
atp50
a((lp51
F0.3966205817610692
aF-0.19460240315819285
aF1.4505797002731906
a(lp52
F-0.4467714885287168
aF0.8775529767234815
aF0.04880820007755016
aF-0.1670741442796612
atp53
a((lp54
F0.5426240982562895
aF-0.025324715788245734
aF1.0950774864345285
a(lp55
F-0.3559945538968805
aF0.9330569380359468
aF0.048198990282350376
aF-0.018694526324740154
atp56
a((lp57
F0.4682291135876573
aF0.6213503794264168
aF1.373948031258784
a(lp58
F0.024635791906422653
aF0.9975644200966661
aF0.013743972692261106
aF-0.06379191742674166
atp59
a((lp60
F0.4690746624519244
aF0.6230744651604959
aF1.376775859488631
a(lp61
F0.023365580046487953
aF0.9971078431902175
aF0.010662550515831346
aF-0.07152837712503343
atp62
a((lp63
F0.06758810666233361
aF0.6320028918649985
aF1.5208624029776519
a(lp64
F0.07757122665904523
aF0.9931513597438661
aF-0.07611141749144269
aF0.04289677797882046
atp65
a((lp66
F-0.4310641270386476
aF0.1624676912480527
aF1.6608767193735752
a(lp67
F-0.20181201815436778
aF0.9640794943388158
aF0.03172027121276927
aF0.16975412312536842
atp68
aa.